(dp1
S'files'
p2
(dp3
S'_Users_marco_Code_django-simple-captcha_captcha_helpers'
p4
(dp5
S'index'
p6
(dp7
S'html_filename'
p8
S'_Users_marco_Code_django-simple-captcha_captcha_helpers.html'
p9
sS'name'
p10
S'/Users/marco/Code/django-simple-captcha/captcha/helpers'
p11
sS'nums'
p12
ccopy_reg
_reconstructor
p13
(ccoverage.results
Numbers
p14
c__builtin__
object
p15
NtRp16
(dp17
S'n_files'
p18
I1
sS'n_branches'
p19
I16
sS'n_statements'
p20
I62
sS'n_excluded'
p21
I0
sS'n_partial_branches'
p22
I2
sS'n_missing'
p23
I0
sS'n_missing_branches'
p24
I2
sbssS'hash'
p25
S'*\x19\x04\xe7\xc2\xf5*\x19X>A7<\x03\xae\x18'
p26
ssS'_Users_marco_Code_django-simple-captcha_captcha___init__'
p27
(dp28
g6
(dp29
S'html_filename'
p30
S'_Users_marco_Code_django-simple-captcha_captcha___init__.html'
p31
sS'name'
p32
S'/Users/marco/Code/django-simple-captcha/captcha/__init__'
p33
sS'nums'
p34
g13
(g14
g15
NtRp35
(dp36
g18
I1
sg19
I0
sg20
I3
sg21
I0
sg22
I0
sg23
I0
sg24
I0
sbssg25
S'v\x83E\x9e\xda\xc5c\xdaS\xed\x88\xc3\x92\xbbN\xe2'
p37
ssS'_Users_marco_Code_django-simple-captcha_captcha_views'
p38
(dp39
g6
(dp40
g8
S'_Users_marco_Code_django-simple-captcha_captcha_views.html'
p41
sg10
S'/Users/marco/Code/django-simple-captcha/captcha/views'
p42
sg12
g13
(g14
g15
NtRp43
(dp44
g18
I1
sg19
I24
sg20
I93
sg21
I0
sg22
I4
sg23
I28
sg24
I10
sbssg25
S's z\xea\xf3\xda\x11\xe7mLGdG\x12\xbe\\'
p45
ssS'_Users_marco_Code_django-simple-captcha_captcha_urls'
p46
(dp47
g6
(dp48
g8
S'_Users_marco_Code_django-simple-captcha_captcha_urls.html'
p49
sg10
S'/Users/marco/Code/django-simple-captcha/captcha/urls'
p50
sg12
g13
(g14
g15
NtRp51
(dp52
g18
I1
sg19
I0
sg20
I5
sg21
I0
sg22
I0
sg23
I2
sg24
I0
sbssg25
S'\xcdL\xd5\xc9\xafDk\x11\x1b\xe2-\xe8\xd0\xd1 #'
p53
ssS'_Users_marco_Code_django-simple-captcha_captcha_conf___init__'
p54
(dp55
g6
(dp56
g8
S'_Users_marco_Code_django-simple-captcha_captcha_conf___init__.html'
p57
sg10
S'/Users/marco/Code/django-simple-captcha/captcha/conf/__init__'
p58
sg12
g13
(g14
g15
NtRp59
(dp60
g18
I1
sg19
I0
sg20
I0
sg21
I0
sg22
I0
sg23
I0
sg24
I0
sbssg25
S'\xbf/\x83L\xc9/\xc0\x9a\xf0p\xa8h\xff\x10T5'
p61
ssS'_Users_marco_Code_django-simple-captcha_captcha_fields'
p62
(dp63
g6
(dp64
g8
S'_Users_marco_Code_django-simple-captcha_captcha_fields.html'
p65
sg10
S'/Users/marco/Code/django-simple-captcha/captcha/fields'
p66
sg12
g13
(g14
g15
NtRp67
(dp68
g18
I1
sg19
I20
sg20
I83
sg21
I0
sg22
I5
sg23
I11
sg24
I7
sbssg25
S'\xd5_\xce\xf6\xc4`\x05\x88L9\xbe\xc1\xaaxc\t'
p69
ssS'_Users_marco_Code_django-simple-captcha_captcha_conf_settings'
p70
(dp71
g6
(dp72
g8
S'_Users_marco_Code_django-simple-captcha_captcha_conf_settings.html'
p73
sg10
S'/Users/marco/Code/django-simple-captcha/captcha/conf/settings'
p74
sg12
g13
(g14
g15
NtRp75
(dp76
g18
I1
sg19
I10
sg20
I38
sg21
I0
sg22
I5
sg23
I5
sg24
I5
sbssg25
S'IN\x15\x02\x02\xbdGF\xdc\x88b\x86\x9c\x05\x81\xa1'
p77
ssS'_Users_marco_Code_django-simple-captcha_captcha_models'
p78
(dp79
g6
(dp80
g8
S'_Users_marco_Code_django-simple-captcha_captcha_models.html'
p81
sg10
S'/Users/marco/Code/django-simple-captcha/captcha/models'
p82
sg12
g13
(g14
g15
NtRp83
(dp84
g18
I1
sg19
I10
sg20
I50
sg21
I0
sg22
I3
sg23
I9
sg24
I3
sbssg25
S"v|\xf2\xee\xd9'\xb2x\xe5\xe0\xca\xe9\x04\xbdgU"
p85
sssS'version'
p86
S'3.6'
p87
sS'settings'
p88
S"'\x10\xc3b)Q\xa52\xc0\xd0\x8ecQ\x8e(f"
p89
sS'format'
p90
I1
s.