Certificate:
    Data:
        Version: 3 (0x2)
        Serial Number: 268435657 (0x100000c9)
    Signature Algorithm: sha1WithRSAEncryption
        Issuer: C=DE, ST=Hessen, O=privacyidea, CN=CA001
        Validity
            Not Before: Oct  4 10:53:41 2016 GMT
            Not After : Oct  4 10:53:41 2017 GMT
        Subject: C=DE, ST=Hessen, O=privacyidea, CN=requester.localdomain
        Subject Public Key Info:
            Public Key Algorithm: rsaEncryption
                Public-Key: (2048 bit)
                Modulus:
                    00:cd:be:14:4f:fa:ce:01:3f:42:22:1b:1d:9c:af:
                    dd:92:d2:7f:db:6c:b7:3e:39:43:43:6b:13:03:f1:
                    05:f4:07:74:bc:76:69:28:0b:af:19:8e:d7:fc:e3:
                    cd:c6:58:f2:ca:7f:08:6d:53:fc:07:02:44:24:c6:
                    b4:34:4c:8c:04:fe:33:0e:40:e2:20:ba:02:73:5a:
                    f7:f5:4f:63:6e:cc:c6:b6:df:54:1d:37:39:7d:51:
                    36:26:5f:bd:dc:3f:a8:8b:6b:a2:ae:b6:9d:d6:21:
                    e7:df:41:b8:7a:28:2a:68:48:ca:a8:2d:ed:e1:e9:
                    46:5e:5a:72:6d:b4:84:38:87:91:fd:94:11:0b:28:
                    84:c6:c2:2f:2a:fb:01:f9:36:7a:09:75:d1:33:88:
                    3c:73:41:5b:c8:bf:94:89:70:a1:f0:c0:b9:2e:50:
                    53:1e:b1:17:64:69:f4:2d:81:e0:a9:0d:0e:32:e9:
                    ba:55:8a:85:f1:1b:6f:49:79:b4:7f:88:c3:0d:3e:
                    54:88:9b:3d:1f:38:8c:04:f3:ee:6a:63:2b:f5:c6:
                    db:b4:83:aa:c4:78:41:3a:7d:4b:e1:c8:3e:71:ca:
                    1b:61:59:ea:c6:c4:ca:32:5e:c9:e9:bf:12:29:e6:
                    c6:c3:63:fe:a0:55:da:7a:f1:60:98:4d:26:ed:fa:
                    70:2d
                Exponent: 65537 (0x10001)
        X509v3 extensions:
            X509v3 Key Usage: 
                Digital Signature, Key Encipherment
            X509v3 Basic Constraints: 
                CA:FALSE
            Netscape Cert Type: 
                SSL Server
            Netscape Comment: 
                OpenSSL Generated Server Certificate
            X509v3 Subject Key Identifier: 
                53:3F:ED:5D:09:07:B3:65:7B:AB:45:C9:24:5B:09:77:80:0A:96:ED
            X509v3 Authority Key Identifier: 
                keyid:F4:A7:C0:CC:91:46:AF:64:F3:91:F2:27:F8:C8:B2:6F:8A:87:32:73
                DirName:/C=DE/ST=Hessen/O=privacyidea/CN=CA001
                serial:FB:C8:EB:AC:83:CD:12:07

            X509v3 Extended Key Usage: 
                TLS Web Server Authentication
    Signature Algorithm: sha1WithRSAEncryption
         24:47:4f:92:f3:6e:73:5f:88:1a:6d:67:ef:4f:b3:98:83:3f:
         19:49:f1:48:a6:b3:f3:72:f2:d5:8e:08:4c:37:5e:eb:cd:d7:
         7a:7a:b4:1e:bd:a2:52:a2:ef:bd:c3:3d:f7:5e:c8:7e:ce:76:
         90:b8:11:7c:b3:5a:8a:08:c7:c4:57:9e:05:d5:63:ef:59:2a:
         1e:ec:91:e1:ab:36:b1:a4:cf:5c:85:9e:49:3a:62:76:70:ca:
         66:fb:5c:a0:1b:73:f1:d5:eb:24:78:87:a9:de:04:4e:55:3f:
         a6:ec:09:8f:e6:44:5f:11:57:76:85:f6:31:f2:1a:51:24:0e:
         84:ac:b8:a4:b5:ab:cc:28:28:db:d8:4e:ad:f1:f6:9f:65:bc:
         52:be:cb:2b:98:14:87:8f:d9:62:70:e9:6e:bf:70:e7:85:82:
         55:15:c0:de:5c:a0:8b:e1:d5:24:23:d7:33:f6:67:f4:6c:87:
         cd:93:1e:fb:1d:e0:a7:47:9d:f7:8e:86:e4:90:da:01:17:9e:
         3c:11:c5:d0:1a:c7:87:72:05:f3:0c:58:7c:c3:e2:c9:be:9f:
         89:61:a7:e7:d2:35:51:da:7a:8a:6a:bf:ea:3b:cd:ab:1c:e9:
         67:81:74:a8:64:21:36:45:f8:10:22:bf:9b:a6:31:61:50:af:
         6c:a6:56:66
-----BEGIN CERTIFICATE-----
MIIEJjCCAw6gAwIBAgIEEAAAyTANBgkqhkiG9w0BAQUFADBEMQswCQYDVQQGEwJE
RTEPMA0GA1UECAwGSGVzc2VuMRQwEgYDVQQKDAtwcml2YWN5aWRlYTEOMAwGA1UE
AwwFQ0EwMDEwHhcNMTYxMDA0MTA1MzQxWhcNMTcxMDA0MTA1MzQxWjBUMQswCQYD
VQQGEwJERTEPMA0GA1UECAwGSGVzc2VuMRQwEgYDVQQKDAtwcml2YWN5aWRlYTEe
MBwGA1UEAwwVcmVxdWVzdGVyLmxvY2FsZG9tYWluMIIBIjANBgkqhkiG9w0BAQEF
AAOCAQ8AMIIBCgKCAQEAzb4UT/rOAT9CIhsdnK/dktJ/22y3PjlDQ2sTA/EF9Ad0
vHZpKAuvGY7X/OPNxljyyn8IbVP8BwJEJMa0NEyMBP4zDkDiILoCc1r39U9jbszG
tt9UHTc5fVE2Jl+93D+oi2uirrad1iHn30G4eigqaEjKqC3t4elGXlpybbSEOIeR
/ZQRCyiExsIvKvsB+TZ6CXXRM4g8c0FbyL+UiXCh8MC5LlBTHrEXZGn0LYHgqQ0O
Mum6VYqF8RtvSXm0f4jDDT5UiJs9HziMBPPuamMr9cbbtIOqxHhBOn1L4cg+ccob
YVnqxsTKMl7J6b8SKebGw2P+oFXaevFgmE0m7fpwLQIDAQABo4IBDjCCAQowCwYD
VR0PBAQDAgWgMAkGA1UdEwQCMAAwEQYJYIZIAYb4QgEBBAQDAgZAMDMGCWCGSAGG
+EIBDQQmFiRPcGVuU1NMIEdlbmVyYXRlZCBTZXJ2ZXIgQ2VydGlmaWNhdGUwHQYD
VR0OBBYEFFM/7V0JB7Nle6tFySRbCXeACpbtMHQGA1UdIwRtMGuAFPSnwMyRRq9k
85HyJ/jIsm+KhzJzoUikRjBEMQswCQYDVQQGEwJERTEPMA0GA1UECAwGSGVzc2Vu
MRQwEgYDVQQKDAtwcml2YWN5aWRlYTEOMAwGA1UEAwwFQ0EwMDGCCQD7yOusg80S
BzATBgNVHSUEDDAKBggrBgEFBQcDATANBgkqhkiG9w0BAQUFAAOCAQEAJEdPkvNu
c1+IGm1n70+zmIM/GUnxSKaz83Ly1Y4ITDde683Xenq0Hr2iUqLvvcM9917Ifs52
kLgRfLNaigjHxFeeBdVj71kqHuyR4as2saTPXIWeSTpidnDKZvtcoBtz8dXrJHiH
qd4ETlU/puwJj+ZEXxFXdoX2MfIaUSQOhKy4pLWrzCgo29hOrfH2n2W8Ur7LK5gU
h4/ZYnDpbr9w54WCVRXA3lygi+HVJCPXM/Zn9GyHzZMe+x3gp0ed946G5JDaARee
PBHF0BrHh3IF8wxYfMPiyb6fiWGn59I1Udp6imq/6jvNqxzpZ4F0qGQhNkX4ECK/
m6YxYVCvbKZWZg==
-----END CERTIFICATE-----
