Certificate:
    Data:
        Version: 3 (0x2)
        Serial Number: 268435668 (0x100000d4)
    Signature Algorithm: sha1WithRSAEncryption
        Issuer: C=DE, ST=Hessen, O=privacyidea, CN=CA001
        Validity
            Not Before: Sep 30 15:35:31 2016 GMT
            Not After : Sep 30 15:35:31 2017 GMT
        Subject: C=DE, ST=Hessen, O=privacyidea, CN=requester.localdomain
        Subject Public Key Info:
            Public Key Algorithm: rsaEncryption
                Public-Key: (2048 bit)
                Modulus:
                    00:cd:be:14:4f:fa:ce:01:3f:42:22:1b:1d:9c:af:
                    dd:92:d2:7f:db:6c:b7:3e:39:43:43:6b:13:03:f1:
                    05:f4:07:74:bc:76:69:28:0b:af:19:8e:d7:fc:e3:
                    cd:c6:58:f2:ca:7f:08:6d:53:fc:07:02:44:24:c6:
                    b4:34:4c:8c:04:fe:33:0e:40:e2:20:ba:02:73:5a:
                    f7:f5:4f:63:6e:cc:c6:b6:df:54:1d:37:39:7d:51:
                    36:26:5f:bd:dc:3f:a8:8b:6b:a2:ae:b6:9d:d6:21:
                    e7:df:41:b8:7a:28:2a:68:48:ca:a8:2d:ed:e1:e9:
                    46:5e:5a:72:6d:b4:84:38:87:91:fd:94:11:0b:28:
                    84:c6:c2:2f:2a:fb:01:f9:36:7a:09:75:d1:33:88:
                    3c:73:41:5b:c8:bf:94:89:70:a1:f0:c0:b9:2e:50:
                    53:1e:b1:17:64:69:f4:2d:81:e0:a9:0d:0e:32:e9:
                    ba:55:8a:85:f1:1b:6f:49:79:b4:7f:88:c3:0d:3e:
                    54:88:9b:3d:1f:38:8c:04:f3:ee:6a:63:2b:f5:c6:
                    db:b4:83:aa:c4:78:41:3a:7d:4b:e1:c8:3e:71:ca:
                    1b:61:59:ea:c6:c4:ca:32:5e:c9:e9:bf:12:29:e6:
                    c6:c3:63:fe:a0:55:da:7a:f1:60:98:4d:26:ed:fa:
                    70:2d
                Exponent: 65537 (0x10001)
        X509v3 extensions:
            X509v3 Key Usage: 
                Digital Signature, Key Encipherment
            X509v3 Basic Constraints: 
                CA:FALSE
            Netscape Cert Type: 
                SSL Server
            Netscape Comment: 
                OpenSSL Generated Server Certificate
            X509v3 Subject Key Identifier: 
                53:3F:ED:5D:09:07:B3:65:7B:AB:45:C9:24:5B:09:77:80:0A:96:ED
            X509v3 Authority Key Identifier: 
                keyid:F4:A7:C0:CC:91:46:AF:64:F3:91:F2:27:F8:C8:B2:6F:8A:87:32:73
                DirName:/C=DE/ST=Hessen/O=privacyidea/CN=CA001
                serial:FB:C8:EB:AC:83:CD:12:07

            X509v3 Extended Key Usage: 
                TLS Web Server Authentication
    Signature Algorithm: sha1WithRSAEncryption
         0b:32:e6:da:00:dc:67:08:b3:aa:07:cc:29:46:4d:56:54:78:
         cf:54:41:99:3a:8c:8b:b9:a2:23:ea:17:b4:16:2e:53:a0:f5:
         d3:eb:24:a7:0a:a0:80:99:c9:01:3b:a9:60:10:15:62:62:87:
         9c:25:0c:c3:86:11:d3:90:a0:36:ca:92:a4:40:f6:ee:91:ff:
         69:55:91:06:02:43:a4:0e:88:71:f2:22:9b:26:e3:3e:30:56:
         42:3f:0f:cd:c2:55:71:86:3d:a5:28:2e:a3:38:ba:13:37:ef:
         b9:9f:06:82:eb:c7:47:41:41:0f:6d:90:9c:09:18:bd:bc:f9:
         28:d6:aa:12:7a:3b:ca:6d:17:fe:69:6b:4c:3a:19:89:cf:da:
         d2:a7:ad:6b:65:89:94:de:35:53:39:4c:90:e2:8c:4e:f8:09:
         91:48:61:0c:ed:59:f0:68:46:b6:61:74:69:91:63:26:c0:7e:
         13:b2:da:5c:4e:5f:6f:ad:df:d4:b1:45:19:49:3b:e8:05:69:
         c0:25:71:33:cc:d9:f6:c2:ff:f6:8d:55:6c:f9:4e:d3:d9:09:
         9d:7f:02:0b:50:1d:06:30:36:46:40:5d:c6:ca:b9:dd:e6:00:
         60:9b:77:d2:28:6d:22:9a:07:28:c2:47:95:5b:0e:92:42:05:
         6d:19:b8:25
-----BEGIN CERTIFICATE-----
MIIEJjCCAw6gAwIBAgIEEAAA1DANBgkqhkiG9w0BAQUFADBEMQswCQYDVQQGEwJE
RTEPMA0GA1UECAwGSGVzc2VuMRQwEgYDVQQKDAtwcml2YWN5aWRlYTEOMAwGA1UE
AwwFQ0EwMDEwHhcNMTYwOTMwMTUzNTMxWhcNMTcwOTMwMTUzNTMxWjBUMQswCQYD
VQQGEwJERTEPMA0GA1UECAwGSGVzc2VuMRQwEgYDVQQKDAtwcml2YWN5aWRlYTEe
MBwGA1UEAwwVcmVxdWVzdGVyLmxvY2FsZG9tYWluMIIBIjANBgkqhkiG9w0BAQEF
AAOCAQ8AMIIBCgKCAQEAzb4UT/rOAT9CIhsdnK/dktJ/22y3PjlDQ2sTA/EF9Ad0
vHZpKAuvGY7X/OPNxljyyn8IbVP8BwJEJMa0NEyMBP4zDkDiILoCc1r39U9jbszG
tt9UHTc5fVE2Jl+93D+oi2uirrad1iHn30G4eigqaEjKqC3t4elGXlpybbSEOIeR
/ZQRCyiExsIvKvsB+TZ6CXXRM4g8c0FbyL+UiXCh8MC5LlBTHrEXZGn0LYHgqQ0O
Mum6VYqF8RtvSXm0f4jDDT5UiJs9HziMBPPuamMr9cbbtIOqxHhBOn1L4cg+ccob
YVnqxsTKMl7J6b8SKebGw2P+oFXaevFgmE0m7fpwLQIDAQABo4IBDjCCAQowCwYD
VR0PBAQDAgWgMAkGA1UdEwQCMAAwEQYJYIZIAYb4QgEBBAQDAgZAMDMGCWCGSAGG
+EIBDQQmFiRPcGVuU1NMIEdlbmVyYXRlZCBTZXJ2ZXIgQ2VydGlmaWNhdGUwHQYD
VR0OBBYEFFM/7V0JB7Nle6tFySRbCXeACpbtMHQGA1UdIwRtMGuAFPSnwMyRRq9k
85HyJ/jIsm+KhzJzoUikRjBEMQswCQYDVQQGEwJERTEPMA0GA1UECAwGSGVzc2Vu
MRQwEgYDVQQKDAtwcml2YWN5aWRlYTEOMAwGA1UEAwwFQ0EwMDGCCQD7yOusg80S
BzATBgNVHSUEDDAKBggrBgEFBQcDATANBgkqhkiG9w0BAQUFAAOCAQEACzLm2gDc
ZwizqgfMKUZNVlR4z1RBmTqMi7miI+oXtBYuU6D10+skpwqggJnJATupYBAVYmKH
nCUMw4YR05CgNsqSpED27pH/aVWRBgJDpA6IcfIimybjPjBWQj8PzcJVcYY9pSgu
ozi6EzfvuZ8GguvHR0FBD22QnAkYvbz5KNaqEno7ym0X/mlrTDoZic/a0qeta2WJ
lN41UzlMkOKMTvgJkUhhDO1Z8GhGtmF0aZFjJsB+E7LaXE5fb63f1LFFGUk76AVp
wCVxM8zZ9sL/9o1VbPlO09kJnX8CC1AdBjA2RkBdxsq53eYAYJt30ihtIpoHKMJH
lVsOkkIFbRm4JQ==
-----END CERTIFICATE-----
