Certificate:
    Data:
        Version: 3 (0x2)
        Serial Number: 268435659 (0x100000cb)
    Signature Algorithm: sha1WithRSAEncryption
        Issuer: C=DE, ST=Hessen, O=privacyidea, CN=CA001
        Validity
            Not Before: Oct  4 10:55:02 2016 GMT
            Not After : Oct  4 10:55:02 2017 GMT
        Subject: C=DE, ST=Hessen, O=privacyidea, CN=usercert
        Subject Public Key Info:
            Public Key Algorithm: rsaEncryption
                Public-Key: (2048 bit)
                Modulus:
                    00:dc:2f:d1:5f:29:97:d4:7c:c3:53:c8:30:bd:4b:
                    67:70:2c:24:6b:b8:5e:eb:21:7a:48:12:56:7c:81:
                    5c:48:75:b6:68:eb:f6:f2:98:4e:50:51:d1:7f:6c:
                    73:f3:0a:a7:ae:be:48:5e:e5:d6:e1:d9:2a:7c:32:
                    6e:4e:fd:08:f6:5a:54:49:23:73:c3:b9:07:18:d1:
                    ef:b3:ac:f8:8a:dc:94:96:a4:90:3a:8e:74:df:e6:
                    0d:37:1b:bd:5b:b7:25:1a:56:39:da:6f:91:aa:5e:
                    1c:74:f3:f9:7c:14:01:83:12:65:76:c7:bb:fe:36:
                    5b:95:e9:72:65:83:ed:3e:98:30:71:fa:87:dd:a3:
                    36:5a:30:03:2e:26:e0:61:d1:bf:02:3f:b6:06:1f:
                    4a:89:28:1c:5c:a2:ff:4e:be:94:e6:8c:e0:da:82:
                    f1:9d:29:32:48:30:73:b4:04:f6:42:1e:be:f7:e2:
                    32:32:27:3c:9d:89:2f:70:3e:85:9a:6f:5c:c5:09:
                    c0:8c:32:2f:72:22:c9:d2:95:1f:b6:ac:72:60:72:
                    b7:82:4d:6b:ce:5b:e3:00:d0:d2:2f:58:c6:e0:10:
                    e5:51:ca:4d:3b:2e:e6:7e:ab:84:d6:56:f1:93:35:
                    a0:93:64:26:81:75:2f:91:b5:16:06:38:0b:db:cc:
                    2d:07
                Exponent: 65537 (0x10001)
        X509v3 extensions:
            X509v3 Key Usage: 
                Digital Signature, Key Encipherment
            X509v3 Basic Constraints: 
                CA:FALSE
            Netscape Cert Type: 
                SSL Server
            Netscape Comment: 
                OpenSSL Generated Server Certificate
            X509v3 Subject Key Identifier: 
                FC:14:D1:F0:4B:8D:00:90:F2:F5:B8:71:9E:4E:97:C3:92:54:AD:0B
            X509v3 Authority Key Identifier: 
                keyid:F4:A7:C0:CC:91:46:AF:64:F3:91:F2:27:F8:C8:B2:6F:8A:87:32:73
                DirName:/C=DE/ST=Hessen/O=privacyidea/CN=CA001
                serial:FB:C8:EB:AC:83:CD:12:07

            X509v3 Extended Key Usage: 
                TLS Web Server Authentication
    Signature Algorithm: sha1WithRSAEncryption
         48:b2:10:64:f7:28:5d:95:cb:02:15:69:d7:4a:77:c1:80:af:
         98:cc:88:73:39:93:24:a3:de:01:fd:32:cb:83:b6:d3:cb:88:
         7d:c4:38:22:64:83:f0:66:59:67:24:87:b0:5d:d0:16:6e:9b:
         d2:0d:01:bc:e4:61:4b:34:63:87:3b:11:a0:9e:6d:d9:0c:6b:
         08:34:11:cc:65:9c:ef:16:2b:0d:8f:27:09:d9:79:76:d5:2c:
         80:e9:58:e2:a0:67:ed:c0:1a:d0:b4:0a:7b:c9:ee:dc:e5:90:
         25:90:15:71:d4:05:ff:85:91:9d:e0:ab:06:b7:dd:9d:b3:b9:
         e3:36:33:96:4a:18:13:a9:ea:57:57:8e:83:7b:42:05:86:88:
         64:b0:21:ae:22:4c:d2:a4:bd:4f:c0:45:dd:88:d3:7b:f9:82:
         83:91:2b:41:cd:09:a4:77:bb:79:33:f9:c9:ae:eb:24:d5:65:
         f9:dc:cd:0a:64:e3:09:62:09:c5:27:1c:5d:5f:0e:60:ce:b3:
         5d:54:ad:54:66:f7:2b:9e:d8:98:16:54:f4:89:54:ac:df:45:
         9d:45:87:81:c3:b7:24:00:50:1f:57:31:81:b0:fd:d5:1a:e0:
         2b:09:b6:10:71:93:b2:eb:18:7d:ed:ac:26:bc:4b:a9:d5:cc:
         43:e5:85:17
-----BEGIN CERTIFICATE-----
MIIEGTCCAwGgAwIBAgIEEAAAyzANBgkqhkiG9w0BAQUFADBEMQswCQYDVQQGEwJE
RTEPMA0GA1UECAwGSGVzc2VuMRQwEgYDVQQKDAtwcml2YWN5aWRlYTEOMAwGA1UE
AwwFQ0EwMDEwHhcNMTYxMDA0MTA1NTAyWhcNMTcxMDA0MTA1NTAyWjBHMQswCQYD
VQQGEwJERTEPMA0GA1UECAwGSGVzc2VuMRQwEgYDVQQKDAtwcml2YWN5aWRlYTER
MA8GA1UEAwwIdXNlcmNlcnQwggEiMA0GCSqGSIb3DQEBAQUAA4IBDwAwggEKAoIB
AQDcL9FfKZfUfMNTyDC9S2dwLCRruF7rIXpIElZ8gVxIdbZo6/bymE5QUdF/bHPz
Cqeuvkhe5dbh2Sp8Mm5O/Qj2WlRJI3PDuQcY0e+zrPiK3JSWpJA6jnTf5g03G71b
tyUaVjnab5GqXhx08/l8FAGDEmV2x7v+NluV6XJlg+0+mDBx+ofdozZaMAMuJuBh
0b8CP7YGH0qJKBxcov9OvpTmjODagvGdKTJIMHO0BPZCHr734jIyJzydiS9wPoWa
b1zFCcCMMi9yIsnSlR+2rHJgcreCTWvOW+MA0NIvWMbgEOVRyk07LuZ+q4TWVvGT
NaCTZCaBdS+RtRYGOAvbzC0HAgMBAAGjggEOMIIBCjALBgNVHQ8EBAMCBaAwCQYD
VR0TBAIwADARBglghkgBhvhCAQEEBAMCBkAwMwYJYIZIAYb4QgENBCYWJE9wZW5T
U0wgR2VuZXJhdGVkIFNlcnZlciBDZXJ0aWZpY2F0ZTAdBgNVHQ4EFgQU/BTR8EuN
AJDy9bhxnk6Xw5JUrQswdAYDVR0jBG0wa4AU9KfAzJFGr2TzkfIn+Miyb4qHMnOh
SKRGMEQxCzAJBgNVBAYTAkRFMQ8wDQYDVQQIDAZIZXNzZW4xFDASBgNVBAoMC3By
aXZhY3lpZGVhMQ4wDAYDVQQDDAVDQTAwMYIJAPvI66yDzRIHMBMGA1UdJQQMMAoG
CCsGAQUFBwMBMA0GCSqGSIb3DQEBBQUAA4IBAQBIshBk9yhdlcsCFWnXSnfBgK+Y
zIhzOZMko94B/TLLg7bTy4h9xDgiZIPwZllnJIewXdAWbpvSDQG85GFLNGOHOxGg
nm3ZDGsINBHMZZzvFisNjycJ2Xl21SyA6VjioGftwBrQtAp7ye7c5ZAlkBVx1AX/
hZGd4KsGt92ds7njNjOWShgTqepXV46De0IFhohksCGuIkzSpL1PwEXdiNN7+YKD
kStBzQmkd7t5M/nJrusk1WX53M0KZOMJYgnFJxxdXw5gzrNdVK1UZvcrntiYFlT0
iVSs30WdRYeBw7ckAFAfVzGBsP3VGuArCbYQcZOy6xh97awmvEup1cxD5YUX
-----END CERTIFICATE-----
