Certificate:
    Data:
        Version: 3 (0x2)
        Serial Number: 268435660 (0x100000cc)
    Signature Algorithm: sha1WithRSAEncryption
        Issuer: C=DE, ST=Hessen, O=privacyidea, CN=CA001
        Validity
            Not Before: Oct  4 10:55:02 2016 GMT
            Not After : Oct  4 10:55:02 2017 GMT
        Subject: CN=Steve Test/emailAddress=steve@openssl.org
        Subject Public Key Info:
            Public Key Algorithm: rsaEncryption
                Public-Key: (2048 bit)
                Modulus:
                    00:d2:81:89:20:51:48:0f:73:f4:11:32:24:d5:1f:
                    1c:fd:5c:f5:b6:e6:c5:f0:52:81:dc:d2:af:66:4a:
                    7c:93:31:61:5c:af:d1:6d:06:70:03:60:7c:72:0c:
                    88:dd:49:cd:9e:02:6c:d2:5a:d7:53:0f:f3:da:be:
                    69:64:b5:0f:0c:00:e3:b3:50:47:a3:b3:9b:ba:13:
                    50:d6:58:5a:4b:ab:39:e0:11:ca:0a:27:67:03:78:
                    22:66:6d:92:1e:1b:5c:49:ae:e6:6b:d1:8e:3b:9d:
                    06:d3:c6:ac:4d:53:43:10:ab:e8:96:c1:87:82:97:
                    99:8f:20:d3:99:12:37:31:84:e1:8a:ff:29:03:5f:
                    22:90:3e:7f:9b:e0:20:c1:ad:dc:ae:4c:39:1a:31:
                    96:17:02:8c:b2:d9:b4:0d:20:12:9b:7d:86:54:fd:
                    33:fd:c1:2a:62:46:f8:60:96:cf:6e:01:6f:22:df:
                    13:47:e7:97:ec:05:72:23:a3:62:f8:fa:ef:ac:9c:
                    72:f0:37:cb:2f:37:cf:90:a8:27:51:86:c6:d7:78:
                    08:8f:7e:25:a2:15:70:a2:fb:1c:b6:15:5e:a0:97:
                    8b:81:4c:09:28:8a:27:3b:94:bc:71:db:5b:71:37:
                    9a:2b:16:e0:6f:b5:c9:f5:4b:4f:20:ba:65:cf:af:
                    ad:ad
                Exponent: 65537 (0x10001)
        X509v3 extensions:
            X509v3 Key Usage: 
                Digital Signature, Key Encipherment
            X509v3 Basic Constraints: 
                CA:FALSE
            Netscape Cert Type: 
                SSL Server
            Netscape Comment: 
                OpenSSL Generated Server Certificate
            X509v3 Subject Key Identifier: 
                E5:25:6D:3E:AF:0D:DD:3F:4C:F2:45:19:39:D5:14:DB:7E:9C:C0:AD
            X509v3 Authority Key Identifier: 
                keyid:F4:A7:C0:CC:91:46:AF:64:F3:91:F2:27:F8:C8:B2:6F:8A:87:32:73
                DirName:/C=DE/ST=Hessen/O=privacyidea/CN=CA001
                serial:FB:C8:EB:AC:83:CD:12:07

            X509v3 Extended Key Usage: 
                TLS Web Server Authentication
    Signature Algorithm: sha1WithRSAEncryption
         00:f6:79:ad:9a:db:b2:37:01:03:4b:03:da:e3:0c:72:f0:ba:
         07:b9:5e:04:4b:0c:dd:7b:01:bd:24:1b:7b:af:42:bd:d0:49:
         a9:68:dc:90:92:25:c4:c8:27:42:54:73:c4:12:72:55:65:8f:
         f8:cd:1a:0e:90:ed:a1:d2:78:b0:6d:53:13:76:ed:5f:60:29:
         98:dd:a3:cd:1f:4c:c9:80:34:b3:d9:f1:83:2d:72:59:b4:12:
         09:22:a0:46:42:62:fa:76:15:dd:68:89:51:a9:ad:e5:48:68:
         20:77:67:30:04:bd:4c:8f:c2:bb:e9:00:14:ce:0a:43:41:89:
         b4:d3:18:df:6e:aa:45:bf:4c:77:76:5f:f0:c8:63:e7:f9:b8:
         2f:e9:4b:79:4f:ab:b6:c7:23:f5:91:65:28:d3:10:76:fc:bb:
         67:8d:f1:bf:1b:3c:ad:e7:75:30:c4:db:60:69:12:02:b6:2f:
         15:fb:ca:3d:e8:76:ed:32:66:91:11:86:36:39:8d:9b:cc:17:
         86:0b:0c:19:62:6d:dd:d6:20:d4:d5:db:59:f0:e4:75:51:b0:
         7d:34:3d:e5:ed:a6:32:e2:77:96:a5:3e:ef:15:31:de:c4:2f:
         5b:c5:ad:02:14:19:ec:75:90:e7:85:5e:a0:9e:76:43:04:4e:
         76:62:d7:79
-----BEGIN CERTIFICATE-----
MIIECTCCAvGgAwIBAgIEEAAAzDANBgkqhkiG9w0BAQUFADBEMQswCQYDVQQGEwJE
RTEPMA0GA1UECAwGSGVzc2VuMRQwEgYDVQQKDAtwcml2YWN5aWRlYTEOMAwGA1UE
AwwFQ0EwMDEwHhcNMTYxMDA0MTA1NTAyWhcNMTcxMDA0MTA1NTAyWjA3MRMwEQYD
VQQDDApTdGV2ZSBUZXN0MSAwHgYJKoZIhvcNAQkBFhFzdGV2ZUBvcGVuc3NsLm9y
ZzCCASIwDQYJKoZIhvcNAQEBBQADggEPADCCAQoCggEBANKBiSBRSA9z9BEyJNUf
HP1c9bbmxfBSgdzSr2ZKfJMxYVyv0W0GcANgfHIMiN1JzZ4CbNJa11MP89q+aWS1
DwwA47NQR6Ozm7oTUNZYWkurOeARygonZwN4ImZtkh4bXEmu5mvRjjudBtPGrE1T
QxCr6JbBh4KXmY8g05kSNzGE4Yr/KQNfIpA+f5vgIMGt3K5MORoxlhcCjLLZtA0g
Ept9hlT9M/3BKmJG+GCWz24BbyLfE0fnl+wFciOjYvj676yccvA3yy83z5CoJ1GG
xtd4CI9+JaIVcKL7HLYVXqCXi4FMCSiKJzuUvHHbW3E3misW4G+1yfVLTyC6Zc+v
ra0CAwEAAaOCAQ4wggEKMAsGA1UdDwQEAwIFoDAJBgNVHRMEAjAAMBEGCWCGSAGG
+EIBAQQEAwIGQDAzBglghkgBhvhCAQ0EJhYkT3BlblNTTCBHZW5lcmF0ZWQgU2Vy
dmVyIENlcnRpZmljYXRlMB0GA1UdDgQWBBTlJW0+rw3dP0zyRRk51RTbfpzArTB0
BgNVHSMEbTBrgBT0p8DMkUavZPOR8if4yLJviocyc6FIpEYwRDELMAkGA1UEBhMC
REUxDzANBgNVBAgMBkhlc3NlbjEUMBIGA1UECgwLcHJpdmFjeWlkZWExDjAMBgNV
BAMMBUNBMDAxggkA+8jrrIPNEgcwEwYDVR0lBAwwCgYIKwYBBQUHAwEwDQYJKoZI
hvcNAQEFBQADggEBAAD2ea2a27I3AQNLA9rjDHLwuge5XgRLDN17Ab0kG3uvQr3Q
Salo3JCSJcTIJ0JUc8QSclVlj/jNGg6Q7aHSeLBtUxN27V9gKZjdo80fTMmANLPZ
8YMtclm0EgkioEZCYvp2Fd1oiVGpreVIaCB3ZzAEvUyPwrvpABTOCkNBibTTGN9u
qkW/THd2X/DIY+f5uC/pS3lPq7bHI/WRZSjTEHb8u2eN8b8bPK3ndTDE22BpEgK2
LxX7yj3odu0yZpERhjY5jZvMF4YLDBlibd3WINTV21nw5HVRsH00PeXtpjLid5al
Pu8VMd7EL1vFrQIUGex1kOeFXqCedkMETnZi13k=
-----END CERTIFICATE-----
