Certificate:
    Data:
        Version: 3 (0x2)
        Serial Number: 268435664 (0x100000d0)
    Signature Algorithm: sha1WithRSAEncryption
        Issuer: C=DE, ST=Hessen, O=privacyidea, CN=CA001
        Validity
            Not Before: Oct  4 11:00:27 2016 GMT
            Not After : Oct  4 11:00:27 2017 GMT
        Subject: CN=Steve Test/emailAddress=steve@openssl.org
        Subject Public Key Info:
            Public Key Algorithm: rsaEncryption
                Public-Key: (2048 bit)
                Modulus:
                    00:d2:81:89:20:51:48:0f:73:f4:11:32:24:d5:1f:
                    1c:fd:5c:f5:b6:e6:c5:f0:52:81:dc:d2:af:66:4a:
                    7c:93:31:61:5c:af:d1:6d:06:70:03:60:7c:72:0c:
                    88:dd:49:cd:9e:02:6c:d2:5a:d7:53:0f:f3:da:be:
                    69:64:b5:0f:0c:00:e3:b3:50:47:a3:b3:9b:ba:13:
                    50:d6:58:5a:4b:ab:39:e0:11:ca:0a:27:67:03:78:
                    22:66:6d:92:1e:1b:5c:49:ae:e6:6b:d1:8e:3b:9d:
                    06:d3:c6:ac:4d:53:43:10:ab:e8:96:c1:87:82:97:
                    99:8f:20:d3:99:12:37:31:84:e1:8a:ff:29:03:5f:
                    22:90:3e:7f:9b:e0:20:c1:ad:dc:ae:4c:39:1a:31:
                    96:17:02:8c:b2:d9:b4:0d:20:12:9b:7d:86:54:fd:
                    33:fd:c1:2a:62:46:f8:60:96:cf:6e:01:6f:22:df:
                    13:47:e7:97:ec:05:72:23:a3:62:f8:fa:ef:ac:9c:
                    72:f0:37:cb:2f:37:cf:90:a8:27:51:86:c6:d7:78:
                    08:8f:7e:25:a2:15:70:a2:fb:1c:b6:15:5e:a0:97:
                    8b:81:4c:09:28:8a:27:3b:94:bc:71:db:5b:71:37:
                    9a:2b:16:e0:6f:b5:c9:f5:4b:4f:20:ba:65:cf:af:
                    ad:ad
                Exponent: 65537 (0x10001)
        X509v3 extensions:
            X509v3 Key Usage: 
                Digital Signature, Key Encipherment
            X509v3 Basic Constraints: 
                CA:FALSE
            Netscape Cert Type: 
                SSL Server
            Netscape Comment: 
                OpenSSL Generated Server Certificate
            X509v3 Subject Key Identifier: 
                E5:25:6D:3E:AF:0D:DD:3F:4C:F2:45:19:39:D5:14:DB:7E:9C:C0:AD
            X509v3 Authority Key Identifier: 
                keyid:F4:A7:C0:CC:91:46:AF:64:F3:91:F2:27:F8:C8:B2:6F:8A:87:32:73
                DirName:/C=DE/ST=Hessen/O=privacyidea/CN=CA001
                serial:FB:C8:EB:AC:83:CD:12:07

            X509v3 Extended Key Usage: 
                TLS Web Server Authentication
    Signature Algorithm: sha1WithRSAEncryption
         5c:e5:95:be:d1:2d:4d:3d:e0:fb:03:ae:49:fb:f9:a3:99:00:
         58:93:36:77:b5:cd:08:37:80:ed:dd:ff:0c:35:40:93:dc:fd:
         3b:26:41:fb:ba:6b:83:43:fd:33:4c:cb:72:a1:7a:7f:0e:38:
         46:7d:e2:f0:24:a6:bf:fc:71:39:7b:9a:dc:a8:17:e0:93:6e:
         63:10:4b:45:58:bb:2e:14:49:81:de:0d:40:98:6a:ac:92:20:
         ed:22:cb:2c:8a:a4:d1:04:2b:00:22:8f:05:6e:e0:7d:86:5c:
         a2:12:df:a8:a7:7f:42:d5:ae:88:76:ae:06:b7:48:0d:30:aa:
         f5:8f:a6:29:4e:3a:7c:f9:26:7b:5f:90:1a:74:a2:e9:f7:23:
         3f:11:ca:89:41:7e:3b:11:7f:db:5f:53:97:ee:f9:98:b1:00:
         73:a5:bd:7c:0a:77:cc:74:60:60:46:bb:d2:d8:94:00:d8:dc:
         3a:e5:4c:61:74:4b:4a:ce:f7:95:e3:78:d8:11:08:a2:85:cf:
         dd:84:3b:13:62:bd:d9:6d:09:54:e5:a9:30:22:ac:19:b7:25:
         40:69:60:b4:b4:4b:19:25:f8:f9:3c:5e:43:99:44:d7:71:c6:
         de:e6:cf:0d:a8:97:b5:d0:5f:6a:f3:8c:73:54:8b:9c:f4:00:
         0c:5e:e7:19
-----BEGIN CERTIFICATE-----
MIIECTCCAvGgAwIBAgIEEAAA0DANBgkqhkiG9w0BAQUFADBEMQswCQYDVQQGEwJE
RTEPMA0GA1UECAwGSGVzc2VuMRQwEgYDVQQKDAtwcml2YWN5aWRlYTEOMAwGA1UE
AwwFQ0EwMDEwHhcNMTYxMDA0MTEwMDI3WhcNMTcxMDA0MTEwMDI3WjA3MRMwEQYD
VQQDDApTdGV2ZSBUZXN0MSAwHgYJKoZIhvcNAQkBFhFzdGV2ZUBvcGVuc3NsLm9y
ZzCCASIwDQYJKoZIhvcNAQEBBQADggEPADCCAQoCggEBANKBiSBRSA9z9BEyJNUf
HP1c9bbmxfBSgdzSr2ZKfJMxYVyv0W0GcANgfHIMiN1JzZ4CbNJa11MP89q+aWS1
DwwA47NQR6Ozm7oTUNZYWkurOeARygonZwN4ImZtkh4bXEmu5mvRjjudBtPGrE1T
QxCr6JbBh4KXmY8g05kSNzGE4Yr/KQNfIpA+f5vgIMGt3K5MORoxlhcCjLLZtA0g
Ept9hlT9M/3BKmJG+GCWz24BbyLfE0fnl+wFciOjYvj676yccvA3yy83z5CoJ1GG
xtd4CI9+JaIVcKL7HLYVXqCXi4FMCSiKJzuUvHHbW3E3misW4G+1yfVLTyC6Zc+v
ra0CAwEAAaOCAQ4wggEKMAsGA1UdDwQEAwIFoDAJBgNVHRMEAjAAMBEGCWCGSAGG
+EIBAQQEAwIGQDAzBglghkgBhvhCAQ0EJhYkT3BlblNTTCBHZW5lcmF0ZWQgU2Vy
dmVyIENlcnRpZmljYXRlMB0GA1UdDgQWBBTlJW0+rw3dP0zyRRk51RTbfpzArTB0
BgNVHSMEbTBrgBT0p8DMkUavZPOR8if4yLJviocyc6FIpEYwRDELMAkGA1UEBhMC
REUxDzANBgNVBAgMBkhlc3NlbjEUMBIGA1UECgwLcHJpdmFjeWlkZWExDjAMBgNV
BAMMBUNBMDAxggkA+8jrrIPNEgcwEwYDVR0lBAwwCgYIKwYBBQUHAwEwDQYJKoZI
hvcNAQEFBQADggEBAFzllb7RLU094PsDrkn7+aOZAFiTNne1zQg3gO3d/ww1QJPc
/TsmQfu6a4ND/TNMy3Khen8OOEZ94vAkpr/8cTl7mtyoF+CTbmMQS0VYuy4USYHe
DUCYaqySIO0iyyyKpNEEKwAijwVu4H2GXKIS36inf0LVroh2rga3SA0wqvWPpilO
Onz5JntfkBp0oun3Iz8RyolBfjsRf9tfU5fu+ZixAHOlvXwKd8x0YGBGu9LYlADY
3DrlTGF0S0rO95XjeNgRCKKFz92EOxNivdltCVTlqTAirBm3JUBpYLS0Sxkl+Pk8
XkOZRNdxxt7mzw2ol7XQX2rzjHNUi5z0AAxe5xk=
-----END CERTIFICATE-----
