Certificate:
    Data:
        Version: 3 (0x2)
        Serial Number: 268435670 (0x100000d6)
    Signature Algorithm: sha1WithRSAEncryption
        Issuer: C=DE, ST=Hessen, O=privacyidea, CN=CA001
        Validity
            Not Before: Sep 30 15:36:28 2016 GMT
            Not After : Sep 30 15:36:28 2017 GMT
        Subject: C=DE, ST=Hessen, O=privacyidea, CN=usercert
        Subject Public Key Info:
            Public Key Algorithm: rsaEncryption
                Public-Key: (2048 bit)
                Modulus:
                    00:dc:2f:d1:5f:29:97:d4:7c:c3:53:c8:30:bd:4b:
                    67:70:2c:24:6b:b8:5e:eb:21:7a:48:12:56:7c:81:
                    5c:48:75:b6:68:eb:f6:f2:98:4e:50:51:d1:7f:6c:
                    73:f3:0a:a7:ae:be:48:5e:e5:d6:e1:d9:2a:7c:32:
                    6e:4e:fd:08:f6:5a:54:49:23:73:c3:b9:07:18:d1:
                    ef:b3:ac:f8:8a:dc:94:96:a4:90:3a:8e:74:df:e6:
                    0d:37:1b:bd:5b:b7:25:1a:56:39:da:6f:91:aa:5e:
                    1c:74:f3:f9:7c:14:01:83:12:65:76:c7:bb:fe:36:
                    5b:95:e9:72:65:83:ed:3e:98:30:71:fa:87:dd:a3:
                    36:5a:30:03:2e:26:e0:61:d1:bf:02:3f:b6:06:1f:
                    4a:89:28:1c:5c:a2:ff:4e:be:94:e6:8c:e0:da:82:
                    f1:9d:29:32:48:30:73:b4:04:f6:42:1e:be:f7:e2:
                    32:32:27:3c:9d:89:2f:70:3e:85:9a:6f:5c:c5:09:
                    c0:8c:32:2f:72:22:c9:d2:95:1f:b6:ac:72:60:72:
                    b7:82:4d:6b:ce:5b:e3:00:d0:d2:2f:58:c6:e0:10:
                    e5:51:ca:4d:3b:2e:e6:7e:ab:84:d6:56:f1:93:35:
                    a0:93:64:26:81:75:2f:91:b5:16:06:38:0b:db:cc:
                    2d:07
                Exponent: 65537 (0x10001)
        X509v3 extensions:
            X509v3 Key Usage: 
                Digital Signature, Key Encipherment
            X509v3 Basic Constraints: 
                CA:FALSE
            Netscape Cert Type: 
                SSL Server
            Netscape Comment: 
                OpenSSL Generated Server Certificate
            X509v3 Subject Key Identifier: 
                FC:14:D1:F0:4B:8D:00:90:F2:F5:B8:71:9E:4E:97:C3:92:54:AD:0B
            X509v3 Authority Key Identifier: 
                keyid:F4:A7:C0:CC:91:46:AF:64:F3:91:F2:27:F8:C8:B2:6F:8A:87:32:73
                DirName:/C=DE/ST=Hessen/O=privacyidea/CN=CA001
                serial:FB:C8:EB:AC:83:CD:12:07

            X509v3 Extended Key Usage: 
                TLS Web Server Authentication
    Signature Algorithm: sha1WithRSAEncryption
         1b:7b:8f:d2:63:7d:1e:6d:02:7b:e3:e4:63:65:3e:85:e3:45:
         92:40:55:99:9e:1a:ef:3c:99:fa:f3:4b:fa:2d:d8:4f:3e:06:
         9b:a1:df:9e:24:b5:4e:c6:49:60:c1:e7:be:48:16:69:56:45:
         1e:74:58:a3:5b:0a:f7:c8:f4:70:48:f2:dd:16:2e:e8:2d:bd:
         67:79:74:52:b0:7f:cd:8d:48:1b:85:7f:79:20:7b:30:5f:29:
         72:2e:1c:2e:e4:2b:2d:e2:7e:69:f9:ea:26:29:1a:bd:dc:f1:
         e9:c0:52:1f:98:b6:1b:3f:f0:7f:85:b0:e2:44:b5:04:39:93:
         9c:fc:a1:68:67:b8:c3:d3:ae:df:a1:9e:9c:8e:d8:89:0a:dd:
         72:20:75:01:57:8a:2e:90:aa:00:de:f7:f3:fa:d7:56:b5:6e:
         87:cc:c6:fd:54:ee:7b:85:d5:93:f7:74:ee:13:e7:ce:3e:92:
         5e:94:2c:ee:41:63:62:24:53:1a:b5:d1:7e:62:3e:bc:e2:cf:
         76:02:70:3c:d6:37:a3:44:e3:b1:fe:21:5a:39:c9:0c:2a:61:
         20:34:01:4d:0d:85:76:d0:b2:a0:ef:47:27:53:26:54:5f:bd:
         28:f5:a0:38:2e:70:a9:4e:90:cf:28:ec:7c:8e:d8:fe:dd:f6:
         24:d9:1d:b2
-----BEGIN CERTIFICATE-----
MIIEGTCCAwGgAwIBAgIEEAAA1jANBgkqhkiG9w0BAQUFADBEMQswCQYDVQQGEwJE
RTEPMA0GA1UECAwGSGVzc2VuMRQwEgYDVQQKDAtwcml2YWN5aWRlYTEOMAwGA1UE
AwwFQ0EwMDEwHhcNMTYwOTMwMTUzNjI4WhcNMTcwOTMwMTUzNjI4WjBHMQswCQYD
VQQGEwJERTEPMA0GA1UECAwGSGVzc2VuMRQwEgYDVQQKDAtwcml2YWN5aWRlYTER
MA8GA1UEAwwIdXNlcmNlcnQwggEiMA0GCSqGSIb3DQEBAQUAA4IBDwAwggEKAoIB
AQDcL9FfKZfUfMNTyDC9S2dwLCRruF7rIXpIElZ8gVxIdbZo6/bymE5QUdF/bHPz
Cqeuvkhe5dbh2Sp8Mm5O/Qj2WlRJI3PDuQcY0e+zrPiK3JSWpJA6jnTf5g03G71b
tyUaVjnab5GqXhx08/l8FAGDEmV2x7v+NluV6XJlg+0+mDBx+ofdozZaMAMuJuBh
0b8CP7YGH0qJKBxcov9OvpTmjODagvGdKTJIMHO0BPZCHr734jIyJzydiS9wPoWa
b1zFCcCMMi9yIsnSlR+2rHJgcreCTWvOW+MA0NIvWMbgEOVRyk07LuZ+q4TWVvGT
NaCTZCaBdS+RtRYGOAvbzC0HAgMBAAGjggEOMIIBCjALBgNVHQ8EBAMCBaAwCQYD
VR0TBAIwADARBglghkgBhvhCAQEEBAMCBkAwMwYJYIZIAYb4QgENBCYWJE9wZW5T
U0wgR2VuZXJhdGVkIFNlcnZlciBDZXJ0aWZpY2F0ZTAdBgNVHQ4EFgQU/BTR8EuN
AJDy9bhxnk6Xw5JUrQswdAYDVR0jBG0wa4AU9KfAzJFGr2TzkfIn+Miyb4qHMnOh
SKRGMEQxCzAJBgNVBAYTAkRFMQ8wDQYDVQQIDAZIZXNzZW4xFDASBgNVBAoMC3By
aXZhY3lpZGVhMQ4wDAYDVQQDDAVDQTAwMYIJAPvI66yDzRIHMBMGA1UdJQQMMAoG
CCsGAQUFBwMBMA0GCSqGSIb3DQEBBQUAA4IBAQAbe4/SY30ebQJ74+RjZT6F40WS
QFWZnhrvPJn680v6LdhPPgabod+eJLVOxklgwee+SBZpVkUedFijWwr3yPRwSPLd
Fi7oLb1neXRSsH/NjUgbhX95IHswXylyLhwu5Cst4n5p+eomKRq93PHpwFIfmLYb
P/B/hbDiRLUEOZOc/KFoZ7jD067foZ6cjtiJCt1yIHUBV4oukKoA3vfz+tdWtW6H
zMb9VO57hdWT93TuE+fOPpJelCzuQWNiJFMatdF+Yj684s92AnA81jejROOx/iFa
OckMKmEgNAFNDYV20LKg70cnUyZUX70o9aA4LnCpTpDPKOx8jtj+3fYk2R2y
-----END CERTIFICATE-----
