Certificate:
    Data:
        Version: 3 (0x2)
        Serial Number: 268435667 (0x100000d3)
    Signature Algorithm: sha1WithRSAEncryption
        Issuer: C=DE, ST=Hessen, O=privacyidea, CN=CA001
        Validity
            Not Before: Sep 30 15:14:35 2016 GMT
            Not After : Sep 30 15:14:35 2017 GMT
        Subject: CN=Steve Test/emailAddress=steve@openssl.org
        Subject Public Key Info:
            Public Key Algorithm: rsaEncryption
                Public-Key: (2048 bit)
                Modulus:
                    00:d2:81:89:20:51:48:0f:73:f4:11:32:24:d5:1f:
                    1c:fd:5c:f5:b6:e6:c5:f0:52:81:dc:d2:af:66:4a:
                    7c:93:31:61:5c:af:d1:6d:06:70:03:60:7c:72:0c:
                    88:dd:49:cd:9e:02:6c:d2:5a:d7:53:0f:f3:da:be:
                    69:64:b5:0f:0c:00:e3:b3:50:47:a3:b3:9b:ba:13:
                    50:d6:58:5a:4b:ab:39:e0:11:ca:0a:27:67:03:78:
                    22:66:6d:92:1e:1b:5c:49:ae:e6:6b:d1:8e:3b:9d:
                    06:d3:c6:ac:4d:53:43:10:ab:e8:96:c1:87:82:97:
                    99:8f:20:d3:99:12:37:31:84:e1:8a:ff:29:03:5f:
                    22:90:3e:7f:9b:e0:20:c1:ad:dc:ae:4c:39:1a:31:
                    96:17:02:8c:b2:d9:b4:0d:20:12:9b:7d:86:54:fd:
                    33:fd:c1:2a:62:46:f8:60:96:cf:6e:01:6f:22:df:
                    13:47:e7:97:ec:05:72:23:a3:62:f8:fa:ef:ac:9c:
                    72:f0:37:cb:2f:37:cf:90:a8:27:51:86:c6:d7:78:
                    08:8f:7e:25:a2:15:70:a2:fb:1c:b6:15:5e:a0:97:
                    8b:81:4c:09:28:8a:27:3b:94:bc:71:db:5b:71:37:
                    9a:2b:16:e0:6f:b5:c9:f5:4b:4f:20:ba:65:cf:af:
                    ad:ad
                Exponent: 65537 (0x10001)
        X509v3 extensions:
            X509v3 Key Usage: 
                Digital Signature, Key Encipherment
            X509v3 Basic Constraints: 
                CA:FALSE
            Netscape Cert Type: 
                SSL Server
            Netscape Comment: 
                OpenSSL Generated Server Certificate
            X509v3 Subject Key Identifier: 
                E5:25:6D:3E:AF:0D:DD:3F:4C:F2:45:19:39:D5:14:DB:7E:9C:C0:AD
            X509v3 Authority Key Identifier: 
                keyid:F4:A7:C0:CC:91:46:AF:64:F3:91:F2:27:F8:C8:B2:6F:8A:87:32:73
                DirName:/C=DE/ST=Hessen/O=privacyidea/CN=CA001
                serial:FB:C8:EB:AC:83:CD:12:07

            X509v3 Extended Key Usage: 
                TLS Web Server Authentication
    Signature Algorithm: sha1WithRSAEncryption
         86:4e:c4:44:d2:96:ab:5c:3e:bd:c7:3e:93:cb:3a:80:5d:d9:
         96:72:de:a8:42:5a:9a:1f:27:fa:32:bf:94:4c:47:ee:da:13:
         c1:e8:d4:c5:9b:12:c1:3c:bd:e5:4b:cf:d7:a4:f1:90:57:85:
         cf:d2:79:10:e6:1e:0f:f7:a5:8b:fc:f3:fb:dd:81:b9:29:1a:
         2d:ce:1c:a3:3e:30:98:cd:c5:26:19:08:89:3e:c6:5f:73:25:
         4d:0c:ab:52:0f:03:f5:86:21:33:dc:da:c4:1e:d9:b9:b5:8f:
         90:c7:81:71:79:b3:ea:0f:30:32:be:70:ad:a9:6b:bb:94:39:
         37:ab:6e:a2:9f:11:a8:15:e3:79:98:fe:87:6b:2a:d8:72:e7:
         4c:e3:59:e7:c0:f1:f5:15:ae:46:13:ea:a8:8c:c2:69:08:61:
         5b:90:e6:ed:8a:cd:a3:3c:ba:9b:0f:0e:79:37:e2:da:67:96:
         41:b8:8a:64:b9:15:0a:b3:15:b1:bf:b0:18:77:e7:45:f8:b0:
         7f:d6:87:65:bd:fa:c6:7b:25:83:2d:0e:1f:24:5f:83:84:f7:
         d3:bc:14:6c:8a:77:3a:ce:c3:a8:f8:f3:4b:72:a1:3b:da:a7:
         6d:84:0a:d5:d8:78:4c:5f:6a:d2:f3:d7:7b:bd:6e:32:dd:17:
         cf:2a:68:cb
-----BEGIN CERTIFICATE-----
MIIECTCCAvGgAwIBAgIEEAAA0zANBgkqhkiG9w0BAQUFADBEMQswCQYDVQQGEwJE
RTEPMA0GA1UECAwGSGVzc2VuMRQwEgYDVQQKDAtwcml2YWN5aWRlYTEOMAwGA1UE
AwwFQ0EwMDEwHhcNMTYwOTMwMTUxNDM1WhcNMTcwOTMwMTUxNDM1WjA3MRMwEQYD
VQQDDApTdGV2ZSBUZXN0MSAwHgYJKoZIhvcNAQkBFhFzdGV2ZUBvcGVuc3NsLm9y
ZzCCASIwDQYJKoZIhvcNAQEBBQADggEPADCCAQoCggEBANKBiSBRSA9z9BEyJNUf
HP1c9bbmxfBSgdzSr2ZKfJMxYVyv0W0GcANgfHIMiN1JzZ4CbNJa11MP89q+aWS1
DwwA47NQR6Ozm7oTUNZYWkurOeARygonZwN4ImZtkh4bXEmu5mvRjjudBtPGrE1T
QxCr6JbBh4KXmY8g05kSNzGE4Yr/KQNfIpA+f5vgIMGt3K5MORoxlhcCjLLZtA0g
Ept9hlT9M/3BKmJG+GCWz24BbyLfE0fnl+wFciOjYvj676yccvA3yy83z5CoJ1GG
xtd4CI9+JaIVcKL7HLYVXqCXi4FMCSiKJzuUvHHbW3E3misW4G+1yfVLTyC6Zc+v
ra0CAwEAAaOCAQ4wggEKMAsGA1UdDwQEAwIFoDAJBgNVHRMEAjAAMBEGCWCGSAGG
+EIBAQQEAwIGQDAzBglghkgBhvhCAQ0EJhYkT3BlblNTTCBHZW5lcmF0ZWQgU2Vy
dmVyIENlcnRpZmljYXRlMB0GA1UdDgQWBBTlJW0+rw3dP0zyRRk51RTbfpzArTB0
BgNVHSMEbTBrgBT0p8DMkUavZPOR8if4yLJviocyc6FIpEYwRDELMAkGA1UEBhMC
REUxDzANBgNVBAgMBkhlc3NlbjEUMBIGA1UECgwLcHJpdmFjeWlkZWExDjAMBgNV
BAMMBUNBMDAxggkA+8jrrIPNEgcwEwYDVR0lBAwwCgYIKwYBBQUHAwEwDQYJKoZI
hvcNAQEFBQADggEBAIZOxETSlqtcPr3HPpPLOoBd2ZZy3qhCWpofJ/oyv5RMR+7a
E8Ho1MWbEsE8veVLz9ek8ZBXhc/SeRDmHg/3pYv88/vdgbkpGi3OHKM+MJjNxSYZ
CIk+xl9zJU0Mq1IPA/WGITPc2sQe2bm1j5DHgXF5s+oPMDK+cK2pa7uUOTerbqKf
EagV43mY/odrKthy50zjWefA8fUVrkYT6qiMwmkIYVuQ5u2KzaM8upsPDnk34tpn
lkG4imS5FQqzFbG/sBh350X4sH/Wh2W9+sZ7JYMtDh8kX4OE99O8FGyKdzrOw6j4
80tyoTvap22ECtXYeExfatLz13u9bjLdF88qaMs=
-----END CERTIFICATE-----
