Certificate:
    Data:
        Version: 3 (0x2)
        Serial Number: 268435666 (0x100000d2)
    Signature Algorithm: sha1WithRSAEncryption
        Issuer: C=DE, ST=Hessen, O=privacyidea, CN=CA001
        Validity
            Not Before: Oct  4 11:03:26 2016 GMT
            Not After : Oct  4 11:03:26 2017 GMT
        Subject: OU=realm1, CN=cornelius/emailAddress=user@localhost.localdomain
        Subject Public Key Info:
            Public Key Algorithm: rsaEncryption
                Public-Key: (2048 bit)
                Modulus:
                    00:b4:37:e7:ee:6f:44:66:5c:79:d8:de:ba:a2:e1:
                    2a:be:8c:90:e5:12:a6:55:d6:ff:d2:b6:7c:8c:12:
                    3a:f7:a5:4d:99:c5:98:71:8b:56:d9:3d:39:79:8c:
                    28:96:ed:65:17:e1:90:37:8a:0c:bb:55:c0:a2:1d:
                    47:1f:47:c8:e3:35:0b:1d:d2:4a:7e:cb:60:4f:e9:
                    7b:81:d6:55:f8:1b:c2:f0:27:dd:f5:ba:89:34:de:
                    07:8e:15:d6:96:88:1a:da:c5:32:a1:2f:0c:32:0c:
                    e7:63:c3:13:bb:13:b4:5a:f1:43:c6:4f:4b:09:f9:
                    f2:79:b8:bf:07:5f:56:43:36:fb:58:a8:ea:b1:38:
                    30:c7:df:4a:ee:0c:4d:ce:66:b9:7b:eb:0d:86:5e:
                    ac:66:9b:de:7c:4d:32:da:ac:a1:9b:be:e3:86:16:
                    ad:15:eb:f1:4f:06:cb:85:2d:7b:e7:8f:1f:25:43:
                    6b:8e:6d:8b:05:94:9d:30:ca:5e:cb:1f:bc:07:ef:
                    33:69:ab:7f:4c:58:d2:c6:18:17:25:40:2f:06:69:
                    29:c4:75:a8:79:32:5c:11:fc:d1:e2:18:a8:86:a5:
                    83:60:11:13:42:c4:36:3c:67:04:fd:ef:ec:40:e5:
                    59:dd:74:ff:3d:0c:b8:d5:f1:96:50:12:a6:94:1a:
                    54:73
                Exponent: 65537 (0x10001)
        X509v3 extensions:
            X509v3 Key Usage: 
                Digital Signature, Key Encipherment
            X509v3 Basic Constraints: 
                CA:FALSE
            Netscape Cert Type: 
                SSL Server
            Netscape Comment: 
                OpenSSL Generated Server Certificate
            X509v3 Subject Key Identifier: 
                A1:E7:81:A5:B0:34:78:14:43:82:DB:9E:5E:25:A7:54:C8:56:4F:0B
            X509v3 Authority Key Identifier: 
                keyid:F4:A7:C0:CC:91:46:AF:64:F3:91:F2:27:F8:C8:B2:6F:8A:87:32:73
                DirName:/C=DE/ST=Hessen/O=privacyidea/CN=CA001
                serial:FB:C8:EB:AC:83:CD:12:07

            X509v3 Extended Key Usage: 
                TLS Web Server Authentication
    Signature Algorithm: sha1WithRSAEncryption
         6b:2c:6d:eb:11:fb:32:a9:76:9f:ff:e5:50:5a:a9:30:9c:45:
         f3:28:7e:f6:50:7d:2b:95:4d:4a:5d:21:15:47:e0:ec:6e:98:
         46:37:51:30:6d:e0:fd:03:ea:d9:66:e9:fb:3b:d5:cb:07:8d:
         49:76:33:c3:1e:35:68:2b:28:30:03:00:ad:88:8d:f1:41:d3:
         96:d1:2c:b8:18:b6:2e:24:b7:d6:42:d1:27:d8:28:66:f0:eb:
         3d:cb:af:f0:c4:c9:f5:dc:3c:75:44:c5:db:83:28:b5:44:58:
         47:d5:4f:50:1f:df:49:c1:77:86:05:ee:c4:d4:67:73:83:4f:
         24:3b:fc:0a:35:01:90:22:29:97:82:c8:68:7b:c1:33:84:5f:
         71:64:ff:7d:92:94:0d:43:0b:e3:57:23:c7:47:5e:71:4e:16:
         20:6c:ad:8e:77:47:6f:95:89:9c:ae:54:da:00:36:17:89:4a:
         72:88:46:3d:d8:5c:e5:3d:50:72:7a:69:0e:3e:2b:14:41:ba:
         94:bb:18:23:d3:46:ee:82:74:1b:5e:1e:9c:24:dd:d1:10:f3:
         07:8c:dd:13:a2:89:27:5f:17:a4:a2:2e:90:ac:36:e7:48:ba:
         0e:8f:1d:60:9c:70:3c:e0:0c:cf:52:bf:df:8b:1d:37:f6:f6:
         12:19:7e:a0
-----BEGIN CERTIFICATE-----
MIIEIjCCAwqgAwIBAgIEEAAA0jANBgkqhkiG9w0BAQUFADBEMQswCQYDVQQGEwJE
RTEPMA0GA1UECAwGSGVzc2VuMRQwEgYDVQQKDAtwcml2YWN5aWRlYTEOMAwGA1UE
AwwFQ0EwMDEwHhcNMTYxMDA0MTEwMzI2WhcNMTcxMDA0MTEwMzI2WjBQMQ8wDQYD
VQQLDAZyZWFsbTExEjAQBgNVBAMMCWNvcm5lbGl1czEpMCcGCSqGSIb3DQEJARYa
dXNlckBsb2NhbGhvc3QubG9jYWxkb21haW4wggEiMA0GCSqGSIb3DQEBAQUAA4IB
DwAwggEKAoIBAQC0N+fub0RmXHnY3rqi4Sq+jJDlEqZV1v/StnyMEjr3pU2ZxZhx
i1bZPTl5jCiW7WUX4ZA3igy7VcCiHUcfR8jjNQsd0kp+y2BP6XuB1lX4G8LwJ931
uok03geOFdaWiBraxTKhLwwyDOdjwxO7E7Ra8UPGT0sJ+fJ5uL8HX1ZDNvtYqOqx
ODDH30ruDE3OZrl76w2GXqxmm958TTLarKGbvuOGFq0V6/FPBsuFLXvnjx8lQ2uO
bYsFlJ0wyl7LH7wH7zNpq39MWNLGGBclQC8GaSnEdah5MlwR/NHiGKiGpYNgERNC
xDY8ZwT97+xA5VnddP89DLjV8ZZQEqaUGlRzAgMBAAGjggEOMIIBCjALBgNVHQ8E
BAMCBaAwCQYDVR0TBAIwADARBglghkgBhvhCAQEEBAMCBkAwMwYJYIZIAYb4QgEN
BCYWJE9wZW5TU0wgR2VuZXJhdGVkIFNlcnZlciBDZXJ0aWZpY2F0ZTAdBgNVHQ4E
FgQUoeeBpbA0eBRDgtueXiWnVMhWTwswdAYDVR0jBG0wa4AU9KfAzJFGr2TzkfIn
+Miyb4qHMnOhSKRGMEQxCzAJBgNVBAYTAkRFMQ8wDQYDVQQIDAZIZXNzZW4xFDAS
BgNVBAoMC3ByaXZhY3lpZGVhMQ4wDAYDVQQDDAVDQTAwMYIJAPvI66yDzRIHMBMG
A1UdJQQMMAoGCCsGAQUFBwMBMA0GCSqGSIb3DQEBBQUAA4IBAQBrLG3rEfsyqXaf
/+VQWqkwnEXzKH72UH0rlU1KXSEVR+DsbphGN1EwbeD9A+rZZun7O9XLB41JdjPD
HjVoKygwAwCtiI3xQdOW0Sy4GLYuJLfWQtEn2Chm8Os9y6/wxMn13Dx1RMXbgyi1
RFhH1U9QH99JwXeGBe7E1Gdzg08kO/wKNQGQIimXgshoe8EzhF9xZP99kpQNQwvj
VyPHR15xThYgbK2Od0dvlYmcrlTaADYXiUpyiEY92FzlPVByemkOPisUQbqUuxgj
00bugnQbXh6cJN3REPMHjN0TooknXxekoi6QrDbnSLoOjx1gnHA84AzPUr/fix03
9vYSGX6g
-----END CERTIFICATE-----
