Certificate:
    Data:
        Version: 3 (0x2)
        Serial Number: 268435658 (0x100000ca)
    Signature Algorithm: sha1WithRSAEncryption
        Issuer: C=DE, ST=Hessen, O=privacyidea, CN=CA001
        Validity
            Not Before: Oct  4 10:55:02 2016 GMT
            Not After : Oct  4 10:55:02 2017 GMT
        Subject: C=DE, ST=Hessen, O=privacyidea, CN=requester.localdomain
        Subject Public Key Info:
            Public Key Algorithm: rsaEncryption
                Public-Key: (2048 bit)
                Modulus:
                    00:cd:be:14:4f:fa:ce:01:3f:42:22:1b:1d:9c:af:
                    dd:92:d2:7f:db:6c:b7:3e:39:43:43:6b:13:03:f1:
                    05:f4:07:74:bc:76:69:28:0b:af:19:8e:d7:fc:e3:
                    cd:c6:58:f2:ca:7f:08:6d:53:fc:07:02:44:24:c6:
                    b4:34:4c:8c:04:fe:33:0e:40:e2:20:ba:02:73:5a:
                    f7:f5:4f:63:6e:cc:c6:b6:df:54:1d:37:39:7d:51:
                    36:26:5f:bd:dc:3f:a8:8b:6b:a2:ae:b6:9d:d6:21:
                    e7:df:41:b8:7a:28:2a:68:48:ca:a8:2d:ed:e1:e9:
                    46:5e:5a:72:6d:b4:84:38:87:91:fd:94:11:0b:28:
                    84:c6:c2:2f:2a:fb:01:f9:36:7a:09:75:d1:33:88:
                    3c:73:41:5b:c8:bf:94:89:70:a1:f0:c0:b9:2e:50:
                    53:1e:b1:17:64:69:f4:2d:81:e0:a9:0d:0e:32:e9:
                    ba:55:8a:85:f1:1b:6f:49:79:b4:7f:88:c3:0d:3e:
                    54:88:9b:3d:1f:38:8c:04:f3:ee:6a:63:2b:f5:c6:
                    db:b4:83:aa:c4:78:41:3a:7d:4b:e1:c8:3e:71:ca:
                    1b:61:59:ea:c6:c4:ca:32:5e:c9:e9:bf:12:29:e6:
                    c6:c3:63:fe:a0:55:da:7a:f1:60:98:4d:26:ed:fa:
                    70:2d
                Exponent: 65537 (0x10001)
        X509v3 extensions:
            X509v3 Key Usage: 
                Digital Signature, Key Encipherment
            X509v3 Basic Constraints: 
                CA:FALSE
            Netscape Cert Type: 
                SSL Server
            Netscape Comment: 
                OpenSSL Generated Server Certificate
            X509v3 Subject Key Identifier: 
                53:3F:ED:5D:09:07:B3:65:7B:AB:45:C9:24:5B:09:77:80:0A:96:ED
            X509v3 Authority Key Identifier: 
                keyid:F4:A7:C0:CC:91:46:AF:64:F3:91:F2:27:F8:C8:B2:6F:8A:87:32:73
                DirName:/C=DE/ST=Hessen/O=privacyidea/CN=CA001
                serial:FB:C8:EB:AC:83:CD:12:07

            X509v3 Extended Key Usage: 
                TLS Web Server Authentication
    Signature Algorithm: sha1WithRSAEncryption
         5a:6c:6a:a6:a5:92:31:f6:7c:e2:af:c2:7e:db:42:88:fe:b7:
         ca:93:f8:51:8d:13:c0:ec:2a:5d:a4:56:3c:e3:a9:3e:e2:32:
         26:0a:51:4a:c1:18:5b:32:46:95:39:a3:fb:0f:f2:e9:6c:01:
         eb:e7:13:9e:ff:74:2b:b8:d0:48:08:77:1a:8e:c6:cf:3a:ce:
         bb:be:d9:2c:9c:4f:b7:75:25:87:62:2b:37:2c:5b:f0:d4:1c:
         cb:e7:3d:b4:47:9b:13:7c:36:de:f4:6c:d0:78:ab:b7:34:a5:
         7a:16:80:dc:ce:a0:d4:cf:bc:35:76:94:4e:e1:c3:b0:93:77:
         7b:c8:bf:0f:99:d4:6a:d2:2f:0a:a0:63:18:af:85:50:e6:a1:
         58:3c:2a:67:d1:89:89:ac:22:bf:8f:9d:d4:50:85:b1:40:cb:
         33:6a:6b:b8:43:a8:37:46:18:e6:ad:14:4f:52:a2:79:a3:20:
         ba:29:d8:fd:3a:20:06:e7:0a:87:62:e8:78:ea:ea:33:ac:d9:
         70:ad:b2:c6:56:fb:e0:e7:43:65:f8:3e:7f:2b:27:67:bc:cb:
         e7:57:15:24:cc:3f:aa:21:db:ac:b4:74:13:4e:dd:3f:69:f4:
         77:ad:07:62:9a:3d:ea:8b:fe:f5:bc:d6:c2:4a:00:24:cd:61:
         35:5c:fe:9d
-----BEGIN CERTIFICATE-----
MIIEJjCCAw6gAwIBAgIEEAAAyjANBgkqhkiG9w0BAQUFADBEMQswCQYDVQQGEwJE
RTEPMA0GA1UECAwGSGVzc2VuMRQwEgYDVQQKDAtwcml2YWN5aWRlYTEOMAwGA1UE
AwwFQ0EwMDEwHhcNMTYxMDA0MTA1NTAyWhcNMTcxMDA0MTA1NTAyWjBUMQswCQYD
VQQGEwJERTEPMA0GA1UECAwGSGVzc2VuMRQwEgYDVQQKDAtwcml2YWN5aWRlYTEe
MBwGA1UEAwwVcmVxdWVzdGVyLmxvY2FsZG9tYWluMIIBIjANBgkqhkiG9w0BAQEF
AAOCAQ8AMIIBCgKCAQEAzb4UT/rOAT9CIhsdnK/dktJ/22y3PjlDQ2sTA/EF9Ad0
vHZpKAuvGY7X/OPNxljyyn8IbVP8BwJEJMa0NEyMBP4zDkDiILoCc1r39U9jbszG
tt9UHTc5fVE2Jl+93D+oi2uirrad1iHn30G4eigqaEjKqC3t4elGXlpybbSEOIeR
/ZQRCyiExsIvKvsB+TZ6CXXRM4g8c0FbyL+UiXCh8MC5LlBTHrEXZGn0LYHgqQ0O
Mum6VYqF8RtvSXm0f4jDDT5UiJs9HziMBPPuamMr9cbbtIOqxHhBOn1L4cg+ccob
YVnqxsTKMl7J6b8SKebGw2P+oFXaevFgmE0m7fpwLQIDAQABo4IBDjCCAQowCwYD
VR0PBAQDAgWgMAkGA1UdEwQCMAAwEQYJYIZIAYb4QgEBBAQDAgZAMDMGCWCGSAGG
+EIBDQQmFiRPcGVuU1NMIEdlbmVyYXRlZCBTZXJ2ZXIgQ2VydGlmaWNhdGUwHQYD
VR0OBBYEFFM/7V0JB7Nle6tFySRbCXeACpbtMHQGA1UdIwRtMGuAFPSnwMyRRq9k
85HyJ/jIsm+KhzJzoUikRjBEMQswCQYDVQQGEwJERTEPMA0GA1UECAwGSGVzc2Vu
MRQwEgYDVQQKDAtwcml2YWN5aWRlYTEOMAwGA1UEAwwFQ0EwMDGCCQD7yOusg80S
BzATBgNVHSUEDDAKBggrBgEFBQcDATANBgkqhkiG9w0BAQUFAAOCAQEAWmxqpqWS
MfZ84q/CfttCiP63ypP4UY0TwOwqXaRWPOOpPuIyJgpRSsEYWzJGlTmj+w/y6WwB
6+cTnv90K7jQSAh3Go7GzzrOu77ZLJxPt3Ulh2IrNyxb8NQcy+c9tEebE3w23vRs
0HirtzSlehaA3M6g1M+8NXaUTuHDsJN3e8i/D5nUatIvCqBjGK+FUOahWDwqZ9GJ
iawiv4+d1FCFsUDLM2pruEOoN0YY5q0UT1KieaMguinY/TogBucKh2LoeOrqM6zZ
cK2yxlb74OdDZfg+fysnZ7zL51cVJMw/qiHbrLR0E07dP2n0d60HYpo96ov+9bzW
wkoAJM1hNVz+nQ==
-----END CERTIFICATE-----
