Certificate:
    Data:
        Version: 3 (0x2)
        Serial Number: 268435661 (0x100000cd)
    Signature Algorithm: sha1WithRSAEncryption
        Issuer: C=DE, ST=Hessen, O=privacyidea, CN=CA001
        Validity
            Not Before: Oct  4 10:59:06 2016 GMT
            Not After : Oct  4 10:59:06 2017 GMT
        Subject: C=DE, ST=Hessen, O=privacyidea, CN=requester.localdomain
        Subject Public Key Info:
            Public Key Algorithm: rsaEncryption
                Public-Key: (2048 bit)
                Modulus:
                    00:cd:be:14:4f:fa:ce:01:3f:42:22:1b:1d:9c:af:
                    dd:92:d2:7f:db:6c:b7:3e:39:43:43:6b:13:03:f1:
                    05:f4:07:74:bc:76:69:28:0b:af:19:8e:d7:fc:e3:
                    cd:c6:58:f2:ca:7f:08:6d:53:fc:07:02:44:24:c6:
                    b4:34:4c:8c:04:fe:33:0e:40:e2:20:ba:02:73:5a:
                    f7:f5:4f:63:6e:cc:c6:b6:df:54:1d:37:39:7d:51:
                    36:26:5f:bd:dc:3f:a8:8b:6b:a2:ae:b6:9d:d6:21:
                    e7:df:41:b8:7a:28:2a:68:48:ca:a8:2d:ed:e1:e9:
                    46:5e:5a:72:6d:b4:84:38:87:91:fd:94:11:0b:28:
                    84:c6:c2:2f:2a:fb:01:f9:36:7a:09:75:d1:33:88:
                    3c:73:41:5b:c8:bf:94:89:70:a1:f0:c0:b9:2e:50:
                    53:1e:b1:17:64:69:f4:2d:81:e0:a9:0d:0e:32:e9:
                    ba:55:8a:85:f1:1b:6f:49:79:b4:7f:88:c3:0d:3e:
                    54:88:9b:3d:1f:38:8c:04:f3:ee:6a:63:2b:f5:c6:
                    db:b4:83:aa:c4:78:41:3a:7d:4b:e1:c8:3e:71:ca:
                    1b:61:59:ea:c6:c4:ca:32:5e:c9:e9:bf:12:29:e6:
                    c6:c3:63:fe:a0:55:da:7a:f1:60:98:4d:26:ed:fa:
                    70:2d
                Exponent: 65537 (0x10001)
        X509v3 extensions:
            X509v3 Key Usage: 
                Digital Signature, Key Encipherment
            X509v3 Basic Constraints: 
                CA:FALSE
            Netscape Cert Type: 
                SSL Server
            Netscape Comment: 
                OpenSSL Generated Server Certificate
            X509v3 Subject Key Identifier: 
                53:3F:ED:5D:09:07:B3:65:7B:AB:45:C9:24:5B:09:77:80:0A:96:ED
            X509v3 Authority Key Identifier: 
                keyid:F4:A7:C0:CC:91:46:AF:64:F3:91:F2:27:F8:C8:B2:6F:8A:87:32:73
                DirName:/C=DE/ST=Hessen/O=privacyidea/CN=CA001
                serial:FB:C8:EB:AC:83:CD:12:07

            X509v3 Extended Key Usage: 
                TLS Web Server Authentication
    Signature Algorithm: sha1WithRSAEncryption
         ad:6b:94:cf:10:9d:47:b5:94:0f:9b:d5:ee:db:4a:83:95:ad:
         6f:12:64:23:d6:35:fb:2c:37:03:c5:06:44:bc:ba:61:13:2c:
         89:d3:dd:75:05:fd:eb:60:22:9e:fd:7d:d0:40:94:6b:65:d3:
         37:38:5a:82:09:3d:52:e6:9b:f0:ac:dc:ac:fa:48:35:f7:fe:
         d6:96:16:81:5a:16:40:58:18:8d:af:cd:4d:1a:e5:42:d6:b8:
         6d:fb:5c:ca:5f:6f:39:82:04:f0:2c:52:4f:94:8c:6e:c5:e5:
         70:4c:f6:3c:62:e0:ea:d1:38:9f:9e:d9:7e:d7:30:3e:48:29:
         01:a2:5b:17:8a:cb:4f:d9:0c:b6:f2:47:8d:53:b8:96:a6:f6:
         43:70:0a:9d:4c:5a:88:e6:eb:10:fb:ae:44:ac:c4:e5:be:a0:
         b6:4b:60:36:72:84:a1:82:14:0c:af:e1:61:a2:56:92:fb:eb:
         b2:3f:2e:ee:40:8f:d6:e6:2f:48:8f:c7:95:90:3c:92:97:01:
         ec:47:d5:bb:06:2a:20:9b:15:0d:70:04:8b:65:3d:17:a9:94:
         56:db:fe:d6:d2:b7:df:66:7f:f7:12:76:b3:45:c4:ba:5a:ba:
         79:72:a3:d6:c7:42:bd:97:df:e8:b9:59:bc:a9:a6:b3:a8:38:
         13:10:12:64
-----BEGIN CERTIFICATE-----
MIIEJjCCAw6gAwIBAgIEEAAAzTANBgkqhkiG9w0BAQUFADBEMQswCQYDVQQGEwJE
RTEPMA0GA1UECAwGSGVzc2VuMRQwEgYDVQQKDAtwcml2YWN5aWRlYTEOMAwGA1UE
AwwFQ0EwMDEwHhcNMTYxMDA0MTA1OTA2WhcNMTcxMDA0MTA1OTA2WjBUMQswCQYD
VQQGEwJERTEPMA0GA1UECAwGSGVzc2VuMRQwEgYDVQQKDAtwcml2YWN5aWRlYTEe
MBwGA1UEAwwVcmVxdWVzdGVyLmxvY2FsZG9tYWluMIIBIjANBgkqhkiG9w0BAQEF
AAOCAQ8AMIIBCgKCAQEAzb4UT/rOAT9CIhsdnK/dktJ/22y3PjlDQ2sTA/EF9Ad0
vHZpKAuvGY7X/OPNxljyyn8IbVP8BwJEJMa0NEyMBP4zDkDiILoCc1r39U9jbszG
tt9UHTc5fVE2Jl+93D+oi2uirrad1iHn30G4eigqaEjKqC3t4elGXlpybbSEOIeR
/ZQRCyiExsIvKvsB+TZ6CXXRM4g8c0FbyL+UiXCh8MC5LlBTHrEXZGn0LYHgqQ0O
Mum6VYqF8RtvSXm0f4jDDT5UiJs9HziMBPPuamMr9cbbtIOqxHhBOn1L4cg+ccob
YVnqxsTKMl7J6b8SKebGw2P+oFXaevFgmE0m7fpwLQIDAQABo4IBDjCCAQowCwYD
VR0PBAQDAgWgMAkGA1UdEwQCMAAwEQYJYIZIAYb4QgEBBAQDAgZAMDMGCWCGSAGG
+EIBDQQmFiRPcGVuU1NMIEdlbmVyYXRlZCBTZXJ2ZXIgQ2VydGlmaWNhdGUwHQYD
VR0OBBYEFFM/7V0JB7Nle6tFySRbCXeACpbtMHQGA1UdIwRtMGuAFPSnwMyRRq9k
85HyJ/jIsm+KhzJzoUikRjBEMQswCQYDVQQGEwJERTEPMA0GA1UECAwGSGVzc2Vu
MRQwEgYDVQQKDAtwcml2YWN5aWRlYTEOMAwGA1UEAwwFQ0EwMDGCCQD7yOusg80S
BzATBgNVHSUEDDAKBggrBgEFBQcDATANBgkqhkiG9w0BAQUFAAOCAQEArWuUzxCd
R7WUD5vV7ttKg5WtbxJkI9Y1+yw3A8UGRLy6YRMsidPddQX962Ainv190ECUa2XT
Nzhaggk9Uuab8KzcrPpINff+1pYWgVoWQFgYja/NTRrlQta4bftcyl9vOYIE8CxS
T5SMbsXlcEz2PGLg6tE4n57ZftcwPkgpAaJbF4rLT9kMtvJHjVO4lqb2Q3AKnUxa
iObrEPuuRKzE5b6gtktgNnKEoYIUDK/hYaJWkvvrsj8u7kCP1uYvSI/HlZA8kpcB
7EfVuwYqIJsVDXAEi2U9F6mUVtv+1tK332Z/9xJ2s0XEulq6eXKj1sdCvZff6LlZ
vKmms6g4ExASZA==
-----END CERTIFICATE-----
