Certificate:
    Data:
        Version: 3 (0x2)
        Serial Number: 268435663 (0x100000cf)
    Signature Algorithm: sha1WithRSAEncryption
        Issuer: C=DE, ST=Hessen, O=privacyidea, CN=CA001
        Validity
            Not Before: Oct  4 11:00:27 2016 GMT
            Not After : Oct  4 11:00:27 2017 GMT
        Subject: C=DE, ST=Hessen, O=privacyidea, CN=usercert
        Subject Public Key Info:
            Public Key Algorithm: rsaEncryption
                Public-Key: (2048 bit)
                Modulus:
                    00:dc:2f:d1:5f:29:97:d4:7c:c3:53:c8:30:bd:4b:
                    67:70:2c:24:6b:b8:5e:eb:21:7a:48:12:56:7c:81:
                    5c:48:75:b6:68:eb:f6:f2:98:4e:50:51:d1:7f:6c:
                    73:f3:0a:a7:ae:be:48:5e:e5:d6:e1:d9:2a:7c:32:
                    6e:4e:fd:08:f6:5a:54:49:23:73:c3:b9:07:18:d1:
                    ef:b3:ac:f8:8a:dc:94:96:a4:90:3a:8e:74:df:e6:
                    0d:37:1b:bd:5b:b7:25:1a:56:39:da:6f:91:aa:5e:
                    1c:74:f3:f9:7c:14:01:83:12:65:76:c7:bb:fe:36:
                    5b:95:e9:72:65:83:ed:3e:98:30:71:fa:87:dd:a3:
                    36:5a:30:03:2e:26:e0:61:d1:bf:02:3f:b6:06:1f:
                    4a:89:28:1c:5c:a2:ff:4e:be:94:e6:8c:e0:da:82:
                    f1:9d:29:32:48:30:73:b4:04:f6:42:1e:be:f7:e2:
                    32:32:27:3c:9d:89:2f:70:3e:85:9a:6f:5c:c5:09:
                    c0:8c:32:2f:72:22:c9:d2:95:1f:b6:ac:72:60:72:
                    b7:82:4d:6b:ce:5b:e3:00:d0:d2:2f:58:c6:e0:10:
                    e5:51:ca:4d:3b:2e:e6:7e:ab:84:d6:56:f1:93:35:
                    a0:93:64:26:81:75:2f:91:b5:16:06:38:0b:db:cc:
                    2d:07
                Exponent: 65537 (0x10001)
        X509v3 extensions:
            X509v3 Key Usage: 
                Digital Signature, Key Encipherment
            X509v3 Basic Constraints: 
                CA:FALSE
            Netscape Cert Type: 
                SSL Server
            Netscape Comment: 
                OpenSSL Generated Server Certificate
            X509v3 Subject Key Identifier: 
                FC:14:D1:F0:4B:8D:00:90:F2:F5:B8:71:9E:4E:97:C3:92:54:AD:0B
            X509v3 Authority Key Identifier: 
                keyid:F4:A7:C0:CC:91:46:AF:64:F3:91:F2:27:F8:C8:B2:6F:8A:87:32:73
                DirName:/C=DE/ST=Hessen/O=privacyidea/CN=CA001
                serial:FB:C8:EB:AC:83:CD:12:07

            X509v3 Extended Key Usage: 
                TLS Web Server Authentication
    Signature Algorithm: sha1WithRSAEncryption
         9e:d1:b6:0f:2b:e2:c0:32:dc:15:84:44:aa:17:d8:21:17:0b:
         ea:5d:a8:c1:3c:7d:56:b6:59:58:f7:f1:e8:8d:98:86:fe:4b:
         de:71:ca:ce:ed:70:8d:a8:60:bc:3f:30:66:bd:2c:8a:53:90:
         4e:71:30:b1:2c:09:f0:26:6f:92:70:3f:3f:6d:74:d3:2a:9a:
         93:c5:ca:62:06:a6:72:78:59:b7:5f:03:28:5f:1c:97:a0:75:
         71:33:a0:6e:ee:f8:5a:a5:e9:90:b6:1b:4c:7e:23:59:93:2d:
         e3:d9:a7:c7:1d:61:2a:63:40:39:d5:86:9a:77:32:0e:79:b4:
         db:34:35:41:4a:86:c6:e1:3f:fe:33:e2:d2:70:06:1c:6a:f3:
         2f:27:a5:78:6e:64:07:42:9b:55:82:d2:f3:2b:c6:78:06:fc:
         44:2d:6a:f5:79:df:28:0e:6a:0e:f5:65:8a:ca:c8:1b:02:23:
         dd:64:34:ff:f5:62:3e:26:2a:44:8f:35:75:75:d0:0c:38:5f:
         2f:90:5e:45:d6:43:1b:ee:f3:20:bb:f7:6c:16:09:61:6a:0b:
         3e:fc:a8:45:d6:24:59:43:56:9f:b7:c8:6f:32:f2:5d:52:c3:
         a6:d0:81:46:eb:2e:5b:1a:36:f9:53:b8:86:86:fd:00:45:d7:
         be:44:5f:cb
-----BEGIN CERTIFICATE-----
MIIEGTCCAwGgAwIBAgIEEAAAzzANBgkqhkiG9w0BAQUFADBEMQswCQYDVQQGEwJE
RTEPMA0GA1UECAwGSGVzc2VuMRQwEgYDVQQKDAtwcml2YWN5aWRlYTEOMAwGA1UE
AwwFQ0EwMDEwHhcNMTYxMDA0MTEwMDI3WhcNMTcxMDA0MTEwMDI3WjBHMQswCQYD
VQQGEwJERTEPMA0GA1UECAwGSGVzc2VuMRQwEgYDVQQKDAtwcml2YWN5aWRlYTER
MA8GA1UEAwwIdXNlcmNlcnQwggEiMA0GCSqGSIb3DQEBAQUAA4IBDwAwggEKAoIB
AQDcL9FfKZfUfMNTyDC9S2dwLCRruF7rIXpIElZ8gVxIdbZo6/bymE5QUdF/bHPz
Cqeuvkhe5dbh2Sp8Mm5O/Qj2WlRJI3PDuQcY0e+zrPiK3JSWpJA6jnTf5g03G71b
tyUaVjnab5GqXhx08/l8FAGDEmV2x7v+NluV6XJlg+0+mDBx+ofdozZaMAMuJuBh
0b8CP7YGH0qJKBxcov9OvpTmjODagvGdKTJIMHO0BPZCHr734jIyJzydiS9wPoWa
b1zFCcCMMi9yIsnSlR+2rHJgcreCTWvOW+MA0NIvWMbgEOVRyk07LuZ+q4TWVvGT
NaCTZCaBdS+RtRYGOAvbzC0HAgMBAAGjggEOMIIBCjALBgNVHQ8EBAMCBaAwCQYD
VR0TBAIwADARBglghkgBhvhCAQEEBAMCBkAwMwYJYIZIAYb4QgENBCYWJE9wZW5T
U0wgR2VuZXJhdGVkIFNlcnZlciBDZXJ0aWZpY2F0ZTAdBgNVHQ4EFgQU/BTR8EuN
AJDy9bhxnk6Xw5JUrQswdAYDVR0jBG0wa4AU9KfAzJFGr2TzkfIn+Miyb4qHMnOh
SKRGMEQxCzAJBgNVBAYTAkRFMQ8wDQYDVQQIDAZIZXNzZW4xFDASBgNVBAoMC3By
aXZhY3lpZGVhMQ4wDAYDVQQDDAVDQTAwMYIJAPvI66yDzRIHMBMGA1UdJQQMMAoG
CCsGAQUFBwMBMA0GCSqGSIb3DQEBBQUAA4IBAQCe0bYPK+LAMtwVhESqF9ghFwvq
XajBPH1WtllY9/HojZiG/kveccrO7XCNqGC8PzBmvSyKU5BOcTCxLAnwJm+ScD8/
bXTTKpqTxcpiBqZyeFm3XwMoXxyXoHVxM6Bu7vhapemQthtMfiNZky3j2afHHWEq
Y0A51YaadzIOebTbNDVBSobG4T/+M+LScAYcavMvJ6V4bmQHQptVgtLzK8Z4BvxE
LWr1ed8oDmoO9WWKysgbAiPdZDT/9WI+JipEjzV1ddAMOF8vkF5F1kMb7vMgu/ds
Fglhags+/KhF1iRZQ1aft8hvMvJdUsOm0IFG6y5bGjb5U7iGhv0ARde+RF/L
-----END CERTIFICATE-----
